target datalayout = "e-m:e-p270:32:32-p271:32:32-p272:64:64-i64:64-i128:128-f80:128-n8:16:32:64-S128"
target triple = "x86_64-unknown-linux-gnu"

%"class.std::function" = type { %"class.std::_Function_base", ptr }
%"class.std::_Function_base" = type { %"union.std::_Any_data", ptr }
%"union.std::_Any_data" = type { %"union.std::_Nocopy_types" }
%"union.std::_Nocopy_types" = type { { i64, i64 } }
%class.anon = type { [2 x i32] }

@.str.11 = private unnamed_addr constant [5 x i8] c"pipe\00", align 1
@.str.12 = private unnamed_addr constant [5 x i8] c"fork\00", align 1

; Function Attrs: mustprogress nounwind
define linkonce_odr dso_local noundef ptr @_ZNSt9_Any_data9_M_accessEv(ptr noundef nonnull align 8 dereferenceable(16) %this) #4 comdat align 2 {
entry:
  %this.addr = alloca ptr, align 8
  store ptr %this, ptr %this.addr, align 8
  %this1 = load ptr, ptr %this.addr, align 8
  %arrayidx = getelementptr inbounds [16 x i8], ptr %this1, i64 0, i64 0
  ret ptr %arrayidx
}

; Function Attrs: mustprogress nounwind
define internal void @"_ZNSt14_Function_base13_Base_managerIZN4mold3elf10fork_childEvE3$_0E9_M_createIS3_EEvRSt9_Any_dataOT_St17integral_constantIbLb1EE"(ptr noundef nonnull align 8 dereferenceable(16) %__dest, ptr noundef nonnull align 4 dereferenceable(8) %__f) #4 align 2 {
entry:
  %__dest.addr = alloca ptr, align 8
  %__f.addr = alloca ptr, align 8
  store ptr %__dest, ptr %__dest.addr, align 8
  store ptr %__f, ptr %__f.addr, align 8
  %0 = load ptr, ptr %__dest.addr, align 8
  %call = call noundef ptr @_ZNSt9_Any_data9_M_accessEv(ptr noundef nonnull align 8 dereferenceable(16) %0) #3
  %1 = load ptr, ptr %__f.addr, align 8
  call void @llvm.memcpy.p0.p0.i64(ptr align 4 %call, ptr align 4 %1, i64 8, i1 false)
  ret void
}

; Function Attrs: mustprogress nounwind
define internal void @"_ZNSt14_Function_base13_Base_managerIZN4mold3elf10fork_childEvE3$_0E15_M_init_functorIS3_EEvRSt9_Any_dataOT_"(ptr noundef nonnull align 8 dereferenceable(16) %__functor, ptr noundef nonnull align 4 dereferenceable(8) %__f) #4 align 2 {
entry:
  %__functor.addr = alloca ptr, align 8
  %__f.addr = alloca ptr, align 8
  store ptr %__functor, ptr %__functor.addr, align 8
  store ptr %__f, ptr %__f.addr, align 8
  %0 = load ptr, ptr %__functor.addr, align 8
  %1 = load ptr, ptr %__f.addr, align 8
  call void @"_ZNSt14_Function_base13_Base_managerIZN4mold3elf10fork_childEvE3$_0E9_M_createIS3_EEvRSt9_Any_dataOT_St17integral_constantIbLb1EE"(ptr noundef nonnull align 8 dereferenceable(16) %0, ptr noundef nonnull align 4 dereferenceable(8) %1)
  ret void
}

; Function Attrs: mustprogress nounwind
define internal noundef zeroext i1 @"_ZNSt14_Function_base13_Base_managerIZN4mold3elf10fork_childEvE3$_0E21_M_not_empty_functionIS3_EEbRKT_"(ptr noundef nonnull align 4 dereferenceable(8) %0) #4 align 2 {
entry:
  %.addr = alloca ptr, align 8
  store ptr %0, ptr %.addr, align 8
  ret i1 true
}

; Function Attrs: mustprogress nounwind
define linkonce_odr dso_local void @_ZNSt14_Function_baseC2Ev(ptr noundef nonnull align 8 dereferenceable(24) %this) unnamed_addr #4 comdat align 2 {
entry:
  %this.addr = alloca ptr, align 8
  store ptr %this, ptr %this.addr, align 8
  %this1 = load ptr, ptr %this.addr, align 8
  %_M_functor = getelementptr inbounds %"class.std::_Function_base", ptr %this1, i32 0, i32 0
  store ptr null, ptr %_M_functor, align 8
  %_M_manager = getelementptr inbounds %"class.std::_Function_base", ptr %this1, i32 0, i32 1
  store ptr null, ptr %_M_manager, align 8
  ret void
}

; Function Attrs: mustprogress nounwind
define internal void @"_ZNSt8functionIFvvEEC2IZN4mold3elf10fork_childEvE3$_0vEEOT_"(ptr noundef nonnull align 8 dereferenceable(32) %this, ptr noundef nonnull align 4 dereferenceable(8) %__f) unnamed_addr #4 align 2 {
entry:
  %this.addr = alloca ptr, align 8
  %__f.addr = alloca ptr, align 8
  store ptr %this, ptr %this.addr, align 8
  store ptr %__f, ptr %__f.addr, align 8
  %this1 = load ptr, ptr %this.addr, align 8
  %0 = getelementptr inbounds i8, ptr %this1, i64 0
  call void @llvm.memset.p0.i64(ptr align 8 %0, i8 0, i64 24, i1 false)
  call void @_ZNSt14_Function_baseC2Ev(ptr noundef nonnull align 8 dereferenceable(24) %this1) #3
  %_M_invoker = getelementptr inbounds %"class.std::function", ptr %this1, i32 0, i32 1
  store ptr null, ptr %_M_invoker, align 8
  %1 = load ptr, ptr %__f.addr, align 8
  %call = call noundef zeroext i1 @"_ZNSt14_Function_base13_Base_managerIZN4mold3elf10fork_childEvE3$_0E21_M_not_empty_functionIS3_EEbRKT_"(ptr noundef nonnull align 4 dereferenceable(8) %1) #3
  br i1 %call, label %if.then, label %if.end

if.then:                                          ; preds = %entry
  %_M_functor = getelementptr inbounds %"class.std::_Function_base", ptr %this1, i32 0, i32 0
  %2 = load ptr, ptr %__f.addr, align 8
  call void @"_ZNSt14_Function_base13_Base_managerIZN4mold3elf10fork_childEvE3$_0E15_M_init_functorIS3_EEvRSt9_Any_dataOT_"(ptr noundef nonnull align 8 dereferenceable(16) %_M_functor, ptr noundef nonnull align 4 dereferenceable(8) %2) #3
  %_M_invoker2 = getelementptr inbounds %"class.std::function", ptr %this1, i32 0, i32 1
  store ptr @"_ZNSt17_Function_handlerIFvvEZN4mold3elf10fork_childEvE3$_0E9_M_invokeERKSt9_Any_data", ptr %_M_invoker2, align 8
  %_M_manager = getelementptr inbounds %"class.std::_Function_base", ptr %this1, i32 0, i32 1
  store ptr @"_ZNSt17_Function_handlerIFvvEZN4mold3elf10fork_childEvE3$_0E10_M_managerERSt9_Any_dataRKS5_St18_Manager_operation", ptr %_M_manager, align 8
  br label %if.end

if.end:                                           ; preds = %if.then, %entry
  ret void
}

; Function Attrs: mustprogress nounwind
define dso_local void @_ZN4mold3elf10fork_childEv(ptr noalias sret(%"class.std::function") align 8 %agg.result) #4 {
entry:
  %result.ptr = alloca ptr, align 8
  %pipefd = alloca [2 x i32], align 4
  %pid = alloca i32, align 4
  %buf = alloca [1 x i8], align 1
  %status = alloca i32, align 4
  %ref.tmp = alloca %class.anon, align 4
  store ptr %agg.result, ptr %result.ptr, align 8
  %arraydecay = getelementptr inbounds [2 x i32], ptr %pipefd, i64 0, i64 0
  %call = call i32 @pipe(ptr noundef %arraydecay) #3
  %cmp = icmp eq i32 %call, -1
  br i1 %cmp, label %if.then, label %if.end

if.then:                                          ; preds = %entry
  call void @perror(ptr noundef @.str.11)
  call void @exit(i32 noundef 1) #15
  unreachable

if.end:                                           ; preds = %entry
  %call1 = call i32 @fork() #3
  store i32 %call1, ptr %pid, align 4
  %0 = load i32, ptr %pid, align 4
  %cmp2 = icmp eq i32 %0, -1
  br i1 %cmp2, label %if.then3, label %if.end4

if.then3:                                         ; preds = %if.end
  call void @perror(ptr noundef @.str.12)
  call void @exit(i32 noundef 1) #15
  unreachable

if.end4:                                          ; preds = %if.end
  %1 = load i32, ptr %pid, align 4
  %cmp5 = icmp sgt i32 %1, 0
  br i1 %cmp5, label %if.then6, label %if.end27

if.then6:                                         ; preds = %if.end4
  %arrayidx = getelementptr inbounds [2 x i32], ptr %pipefd, i64 0, i64 1
  %2 = load i32, ptr %arrayidx, align 4
  %call7 = call i32 @close(i32 noundef %2)
  %arrayidx8 = getelementptr inbounds [2 x i32], ptr %pipefd, i64 0, i64 0
  %3 = load i32, ptr %arrayidx8, align 4
  %arraydecay9 = getelementptr inbounds [1 x i8], ptr %buf, i64 0, i64 0
  %call10 = call i64 @read(i32 noundef %3, ptr noundef %arraydecay9, i64 noundef 1)
  %cmp11 = icmp eq i64 %call10, 1
  br i1 %cmp11, label %if.then12, label %if.end13

if.then12:                                        ; preds = %if.then6
  call void @_exit(i32 noundef 0) #16
  unreachable

if.end13:                                         ; preds = %if.then6
  %4 = load i32, ptr %pid, align 4
  %call14 = call i32 @waitpid(i32 noundef %4, ptr noundef %status, i32 noundef 0)
  %5 = load i32, ptr %status, align 4
  %and = and i32 %5, 127
  %cmp15 = icmp eq i32 %and, 0
  br i1 %cmp15, label %if.then16, label %if.end18

if.then16:                                        ; preds = %if.end13
  %6 = load i32, ptr %status, align 4
  %and17 = and i32 %6, 65280
  %shr = ashr i32 %and17, 8
  call void @_exit(i32 noundef %shr) #16
  unreachable

if.end18:                                         ; preds = %if.end13
  %7 = load i32, ptr %status, align 4
  %and19 = and i32 %7, 127
  %add = add nsw i32 %and19, 1
  %conv = trunc i32 %add to i8
  %conv20 = sext i8 %conv to i32
  %shr21 = ashr i32 %conv20, 1
  %cmp22 = icmp sgt i32 %shr21, 0
  br i1 %cmp22, label %if.then23, label %if.end26

if.then23:                                        ; preds = %if.end18
  %8 = load i32, ptr %status, align 4
  %and24 = and i32 %8, 127
  %call25 = call i32 @raise(i32 noundef %and24) #3
  br label %if.end26

if.end26:                                         ; preds = %if.then23, %if.end18
  call void @_exit(i32 noundef 1) #16
  unreachable

if.end27:                                         ; preds = %if.end4
  %arrayidx28 = getelementptr inbounds [2 x i32], ptr %pipefd, i64 0, i64 0
  %9 = load i32, ptr %arrayidx28, align 4
  %call29 = call i32 @close(i32 noundef %9)
  %10 = getelementptr inbounds %class.anon, ptr %ref.tmp, i32 0, i32 0
  %arrayinit.begin = getelementptr inbounds [2 x i32], ptr %10, i64 0, i64 0
  br label %arrayinit.body

arrayinit.body:                                   ; preds = %arrayinit.body, %if.end27
  %arrayinit.index = phi i64 [ 0, %if.end27 ], [ %arrayinit.next, %arrayinit.body ]
  %11 = getelementptr inbounds i32, ptr %arrayinit.begin, i64 %arrayinit.index
  %arrayidx30 = getelementptr inbounds [2 x i32], ptr %pipefd, i64 0, i64 %arrayinit.index
  %12 = load i32, ptr %arrayidx30, align 4
  store i32 %12, ptr %11, align 4
  %arrayinit.next = add nuw i64 %arrayinit.index, 1
  %arrayinit.done = icmp eq i64 %arrayinit.next, 2
  br i1 %arrayinit.done, label %arrayinit.end, label %arrayinit.body

arrayinit.end:                                    ; preds = %arrayinit.body
  call void @"_ZNSt8functionIFvvEEC2IZN4mold3elf10fork_childEvE3$_0vEEOT_"(ptr noundef nonnull align 8 dereferenceable(32) %agg.result, ptr noundef nonnull align 4 dereferenceable(8) %ref.tmp) #3
  ret void
}