; Function Attrs: mustprogress nounwind
define dso_local void @_ZN4mold3elf10fork_childEv(ptr noalias writeonly sret(%"class.std::function") align 8 captures(none) %agg.result) local_unnamed_addr #4 {
entry:
  %pipefd = alloca [2 x i32], align 8
  %buf = alloca [1 x i8], align 1
  %status = alloca i32, align 4
  %call = call i32 @pipe(ptr noundef nonnull %pipefd) #25
  %cmp = icmp eq i32 %call, -1
  br i1 %cmp, label %if.then, label %if.end

if.then:                                          ; preds = %entry
  call void @perror(ptr noundef nonnull @.str.11) #30
  call void @exit(i32 noundef 1) #31
  unreachable

if.end:                                           ; preds = %entry
  %call1 = call i32 @fork() #25
  %cmp2 = icmp eq i32 %call1, -1
  br i1 %cmp2, label %if.then3, label %if.end4

if.then3:                                         ; preds = %if.end
  call void @perror(ptr noundef nonnull @.str.12) #30
  call void @exit(i32 noundef 1) #31
  unreachable

if.end4:                                          ; preds = %if.end
  %cmp5 = icmp sgt i32 %call1, 0
  br i1 %cmp5, label %if.then6, label %if.end27

if.then6:                                         ; preds = %if.end4
  %arrayidx = getelementptr inbounds nuw i8, ptr %pipefd, i64 4
  %0 = load i32, ptr %arrayidx, align 4
  %call7 = call i32 @close(i32 noundef %0) #25
  %1 = load i32, ptr %pipefd, align 8
  %call10 = call i64 @read(i32 noundef %1, ptr noundef nonnull %buf, i64 noundef 1) #25
  %cmp11 = icmp eq i64 %call10, 1
  br i1 %cmp11, label %if.then12, label %if.end13

if.then12:                                        ; preds = %if.then6
  call void @_exit(i32 noundef 0) #27
  unreachable

if.end13:                                         ; preds = %if.then6
  %call14 = call i32 @waitpid(i32 noundef %call1, ptr noundef nonnull %status, i32 noundef 0) #25
  %2 = load i32, ptr %status, align 4
  %and = and i32 %2, 127
  %cmp15 = icmp eq i32 %and, 0
  br i1 %cmp15, label %if.then16, label %if.end18

if.then16:                                        ; preds = %if.end13
  %and17 = lshr i32 %2, 8
  %shr = and i32 %and17, 255
  call void @_exit(i32 noundef %shr) #27
  unreachable

if.end18:                                         ; preds = %if.end13
  %conv = shl nuw nsw i32 %and, 24
  %sext = add nuw i32 %conv, 16777216
  %cmp22 = icmp sgt i32 %sext, 33554431
  br i1 %cmp22, label %if.then23, label %if.end26

if.then23:                                        ; preds = %if.end18
  %call25 = call i32 @raise(i32 noundef %and) #25
  br label %if.end26

if.end26:                                         ; preds = %if.then23, %if.end18
  call void @_exit(i32 noundef 1) #27
  unreachable

if.end27:                                         ; preds = %if.end4
  %3 = load i32, ptr %pipefd, align 8
  %call29 = call i32 @close(i32 noundef %3) #25
  %ref.tmp.sroa.0.0.copyload = load i64, ptr %pipefd, align 8
  %_M_manager.i.i = getelementptr inbounds nuw i8, ptr %agg.result, i64 16
  %_M_invoker.i = getelementptr inbounds nuw i8, ptr %agg.result, i64 24
  %4 = getelementptr inbounds nuw i8, ptr %agg.result, i64 8
  store i64 0, ptr %4, align 8
  store i64 %ref.tmp.sroa.0.0.copyload, ptr %agg.result, align 8
  store ptr @"_ZNSt17_Function_handlerIFvvEZN4mold3elf10fork_childEvE3$_0E9_M_invokeERKSt9_Any_data", ptr %_M_invoker.i, align 8
  store ptr @"_ZNSt17_Function_handlerIFvvEZN4mold3elf10fork_childEvE3$_0E10_M_managerERSt9_Any_dataRKS5_St18_Manager_operation", ptr %_M_manager.i.i, align 8
  ret void
}